target datalayout = "e-m:e-p270:32:32-p271:32:32-p272:64:64-i64:64-i128:128-f80:128-n8:16:32:64-S128"
target triple = "x86_64-pc-linux-gnu"

%"class.net::TcpCubicSenderBase" = type <{ %"class.net::SendAlgorithmInterface", %"class.net::HybridSlowStart", %"class.net::PrrSender", ptr, ptr, i8, [3 x i8], i32, i64, i64, i64, i8, i8, i8, i8, i8, [3 x i8] }>
%"class.net::SendAlgorithmInterface" = type { ptr }
%"class.net::HybridSlowStart" = type { i8, i32, i64, i64, i32, %"class.net::QuicTime::Delta" }
%"class.net::QuicTime::Delta" = type { %"class.base::TimeDelta", i64 }
%"class.base::TimeDelta" = type { i64 }
%"class.net::PrrSender" = type { i64, i64, i64, i64 }

; Function Attrs: mustprogress uwtable
define void @_ZN3net18TcpCubicSenderBase21OnConnectionMigrationEv(ptr noundef nonnull align 8 dereferenceable(141) %0) unnamed_addr #0 align 2 {
  %2 = alloca ptr, align 8
  %3 = alloca %"class.net::PrrSender", align 8
  store ptr %0, ptr %2, align 8, !tbaa !3
  %4 = load ptr, ptr %2, align 8
  %5 = getelementptr inbounds nuw %"class.net::TcpCubicSenderBase", ptr %4, i32 0, i32 1
  call void @_ZN3net15HybridSlowStart7RestartEv(ptr noundef nonnull align 8 dereferenceable(48) %5)
  call void @llvm.lifetime.start.p0(i64 32, ptr %3) #13
  call void @_ZN3net9PrrSenderC1Ev(ptr noundef nonnull align 8 dereferenceable(32) %3)
  %6 = getelementptr inbounds nuw %"class.net::TcpCubicSenderBase", ptr %4, i32 0, i32 2
  call void @llvm.memcpy.p0.p0.i64(ptr align 8 %6, ptr align 8 %3, i64 32, i1 false), !tbaa.struct !107
  call void @llvm.lifetime.end.p0(i64 32, ptr %3) #13
  %7 = getelementptr inbounds nuw %"class.net::TcpCubicSenderBase", ptr %4, i32 0, i32 8
  store i64 0, ptr %7, align 8, !tbaa !33
  %8 = getelementptr inbounds nuw %"class.net::TcpCubicSenderBase", ptr %4, i32 0, i32 9
  store i64 0, ptr %8, align 8, !tbaa !34
  %9 = getelementptr inbounds nuw %"class.net::TcpCubicSenderBase", ptr %4, i32 0, i32 10
  store i64 0, ptr %9, align 8, !tbaa !35
  %10 = getelementptr inbounds nuw %"class.net::TcpCubicSenderBase", ptr %4, i32 0, i32 12
  store i8 0, ptr %10, align 1, !tbaa !37
  ret void
}