; Function Attrs: mustprogress uwtable
define void @_ZN3net18TcpCubicSenderBase21OnConnectionMigrationEv(ptr noundef nonnull align 8 dereferenceable(141) %0) unnamed_addr #0 align 2 {
  %2 = alloca %"class.net::PrrSender", align 8
  %3 = getelementptr inbounds nuw i8, ptr %0, i64 8
  tail call void @_ZN3net15HybridSlowStart7RestartEv(ptr noundef nonnull align 8 dereferenceable(48) %3)
  call void @llvm.lifetime.start.p0(i64 32, ptr nonnull %2) #15
  call void @_ZN3net9PrrSenderC1Ev(ptr noundef nonnull align 8 dereferenceable(32) %2)
  %4 = getelementptr inbounds nuw i8, ptr %0, i64 56
  call void @llvm.memcpy.p0.p0.i64(ptr noundef nonnull align 8 dereferenceable(32) %4, ptr noundef nonnull align 8 dereferenceable(32) %2, i64 32, i1 false), !tbaa.struct !60
  call void @llvm.lifetime.end.p0(i64 32, ptr nonnull %2) #15
  %5 = getelementptr inbounds nuw i8, ptr %0, i64 112
  %6 = getelementptr inbounds nuw i8, ptr %0, i64 137
  store i8 0, ptr %6, align 1, !tbaa !61
  call void @llvm.memset.p0.i64(ptr noundef nonnull align 8 dereferenceable(24) %5, i8 0, i64 24, i1 false)
  ret void
}